; ModuleID = '15/24.c'
source_filename = "15/24.c"
target datalayout = "e-m:e-p270:32:32-p271:32:32-p272:64:64-i64:64-f80:128-n8:16:32:64-S128"
target triple = "x86_64-pc-linux-gnu"

@.str = private unnamed_addr constant [3 x i8] c"%d\00", align 1

; Function Attrs: noinline nounwind uwtable
define dso_local i32 @main() #0 {
  %1 = alloca i32, align 4
  %2 = alloca i32, align 4
  %3 = alloca i32, align 4
  %4 = alloca i32, align 4
  %5 = alloca i32, align 4
  %6 = alloca i32, align 4
  %7 = alloca i32, align 4
  %8 = alloca i32, align 4
  %9 = alloca i32, align 4
  %10 = alloca [100 x [1000 x i32]], align 16
  store i32 0, i32* %1, align 4
  %11 = call i32 (i8*, ...) @__isoc99_scanf(i8* getelementptr inbounds ([3 x i8], [3 x i8]* @.str, i64 0, i64 0), i32* %2)
  store i32 0, i32* %3, align 4
  br label %12

12:                                               ; preds = %33, %0
  %13 = load i32, i32* %3, align 4
  %14 = load i32, i32* %2, align 4
  %15 = icmp slt i32 %13, %14
  br i1 %15, label %16, label %36

16:                                               ; preds = %12
  store i32 0, i32* %4, align 4
  br label %17

17:                                               ; preds = %29, %16
  %18 = load i32, i32* %4, align 4
  %19 = load i32, i32* %2, align 4
  %20 = icmp slt i32 %18, %19
  br i1 %20, label %21, label %32

21:                                               ; preds = %17
  %22 = load i32, i32* %3, align 4
  %23 = sext i32 %22 to i64
  %24 = getelementptr inbounds [100 x [1000 x i32]], [100 x [1000 x i32]]* %10, i64 0, i64 %23
  %25 = load i32, i32* %4, align 4
  %26 = sext i32 %25 to i64
  %27 = getelementptr inbounds [1000 x i32], [1000 x i32]* %24, i64 0, i64 %26
  %28 = call i32 (i8*, ...) @__isoc99_scanf(i8* getelementptr inbounds ([3 x i8], [3 x i8]* @.str, i64 0, i64 0), i32* %27)
  br label %29

29:                                               ; preds = %21
  %30 = load i32, i32* %4, align 4
  %31 = add nsw i32 %30, 1
  store i32 %31, i32* %4, align 4
  br label %17

32:                                               ; preds = %17
  br label %33

33:                                               ; preds = %32
  %34 = load i32, i32* %3, align 4
  %35 = add nsw i32 %34, 1
  store i32 %35, i32* %3, align 4
  br label %12

36:                                               ; preds = %12
  store i32 0, i32* %3, align 4
  br label %37

37:                                               ; preds = %192, %36
  %38 = load i32, i32* %3, align 4
  %39 = load i32, i32* %2, align 4
  %40 = icmp slt i32 %38, %39
  br i1 %40, label %41, label %195

41:                                               ; preds = %37
  store i32 0, i32* %4, align 4
  br label %42

42:                                               ; preds = %188, %41
  %43 = load i32, i32* %4, align 4
  %44 = load i32, i32* %2, align 4
  %45 = icmp slt i32 %43, %44
  br i1 %45, label %46, label %191

46:                                               ; preds = %42
  %47 = load i32, i32* %3, align 4
  %48 = sext i32 %47 to i64
  %49 = getelementptr inbounds [100 x [1000 x i32]], [100 x [1000 x i32]]* %10, i64 0, i64 %48
  %50 = load i32, i32* %4, align 4
  %51 = sext i32 %50 to i64
  %52 = getelementptr inbounds [1000 x i32], [1000 x i32]* %49, i64 0, i64 %51
  %53 = load i32, i32* %52, align 4
  %54 = icmp eq i32 %53, 0
  br i1 %54, label %55, label %187

55:                                               ; preds = %46
  %56 = load i32, i32* %3, align 4
  %57 = icmp eq i32 %56, 0
  br i1 %57, label %58, label %61

58:                                               ; preds = %55
  %59 = load i32, i32* %4, align 4
  %60 = icmp eq i32 %59, 0
  br i1 %60, label %149, label %61

61:                                               ; preds = %58, %55
  %62 = load i32, i32* %3, align 4
  %63 = icmp eq i32 %62, 0
  br i1 %63, label %64, label %77

64:                                               ; preds = %61
  %65 = load i32, i32* %4, align 4
  %66 = icmp ne i32 %65, 0
  br i1 %66, label %67, label %77

67:                                               ; preds = %64
  %68 = load i32, i32* %3, align 4
  %69 = sext i32 %68 to i64
  %70 = getelementptr inbounds [100 x [1000 x i32]], [100 x [1000 x i32]]* %10, i64 0, i64 %69
  %71 = load i32, i32* %4, align 4
  %72 = sub nsw i32 %71, 1
  %73 = sext i32 %72 to i64
  %74 = getelementptr inbounds [1000 x i32], [1000 x i32]* %70, i64 0, i64 %73
  %75 = load i32, i32* %74, align 4
  %76 = icmp ne i32 %75, 0
  br i1 %76, label %149, label %77

77:                                               ; preds = %67, %64, %61
  %78 = load i32, i32* %3, align 4
  %79 = icmp ne i32 %78, 0
  br i1 %79, label %80, label %118

80:                                               ; preds = %77
  %81 = load i32, i32* %3, align 4
  %82 = sub nsw i32 %81, 1
  %83 = sext i32 %82 to i64
  %84 = getelementptr inbounds [100 x [1000 x i32]], [100 x [1000 x i32]]* %10, i64 0, i64 %83
  %85 = load i32, i32* %4, align 4
  %86 = sext i32 %85 to i64
  %87 = getelementptr inbounds [1000 x i32], [1000 x i32]* %84, i64 0, i64 %86
  %88 = load i32, i32* %87, align 4
  %89 = icmp ne i32 %88, 0
  br i1 %89, label %90, label %118

90:                                               ; preds = %80
  %91 = load i32, i32* %4, align 4
  %92 = load i32, i32* %2, align 4
  %93 = sub nsw i32 %92, 1
  %94 = icmp ne i32 %91, %93
  br i1 %94, label %95, label %118

95:                                               ; preds = %90
  %96 = load i32, i32* %3, align 4
  %97 = sext i32 %96 to i64
  %98 = getelementptr inbounds [100 x [1000 x i32]], [100 x [1000 x i32]]* %10, i64 0, i64 %97
  %99 = load i32, i32* %4, align 4
  %100 = add nsw i32 %99, 1
  %101 = sext i32 %100 to i64
  %102 = getelementptr inbounds [1000 x i32], [1000 x i32]* %98, i64 0, i64 %101
  %103 = load i32, i32* %102, align 4
  %104 = icmp eq i32 %103, 0
  br i1 %104, label %105, label %118

105:                                              ; preds = %95
  %106 = load i32, i32* %4, align 4
  %107 = icmp ne i32 %106, 0
  br i1 %107, label %108, label %118

108:                                              ; preds = %105
  %109 = load i32, i32* %3, align 4
  %110 = sext i32 %109 to i64
  %111 = getelementptr inbounds [100 x [1000 x i32]], [100 x [1000 x i32]]* %10, i64 0, i64 %110
  %112 = load i32, i32* %4, align 4
  %113 = sub nsw i32 %112, 1
  %114 = sext i32 %113 to i64
  %115 = getelementptr inbounds [1000 x i32], [1000 x i32]* %111, i64 0, i64 %114
  %116 = load i32, i32* %115, align 4
  %117 = icmp ne i32 %116, 0
  br i1 %117, label %149, label %118

118:                                              ; preds = %108, %105, %95, %90, %80, %77
  %119 = load i32, i32* %3, align 4
  %120 = icmp ne i32 %119, 0
  br i1 %120, label %121, label %152

121:                                              ; preds = %118
  %122 = load i32, i32* %3, align 4
  %123 = sub nsw i32 %122, 1
  %124 = sext i32 %123 to i64
  %125 = getelementptr inbounds [100 x [1000 x i32]], [100 x [1000 x i32]]* %10, i64 0, i64 %124
  %126 = load i32, i32* %4, align 4
  %127 = sext i32 %126 to i64
  %128 = getelementptr inbounds [1000 x i32], [1000 x i32]* %125, i64 0, i64 %127
  %129 = load i32, i32* %128, align 4
  %130 = icmp ne i32 %129, 0
  br i1 %130, label %131, label %152

131:                                              ; preds = %121
  %132 = load i32, i32* %4, align 4
  %133 = load i32, i32* %2, align 4
  %134 = sub nsw i32 %133, 1
  %135 = icmp ne i32 %132, %134
  br i1 %135, label %136, label %152

136:                                              ; preds = %131
  %137 = load i32, i32* %3, align 4
  %138 = sext i32 %137 to i64
  %139 = getelementptr inbounds [100 x [1000 x i32]], [100 x [1000 x i32]]* %10, i64 0, i64 %138
  %140 = load i32, i32* %4, align 4
  %141 = add nsw i32 %140, 1
  %142 = sext i32 %141 to i64
  %143 = getelementptr inbounds [1000 x i32], [1000 x i32]* %139, i64 0, i64 %142
  %144 = load i32, i32* %143, align 4
  %145 = icmp eq i32 %144, 0
  br i1 %145, label %146, label %152

146:                                              ; preds = %136
  %147 = load i32, i32* %4, align 4
  %148 = icmp eq i32 %147, 0
  br i1 %148, label %149, label %152

149:                                              ; preds = %146, %108, %67, %58
  %150 = load i32, i32* %3, align 4
  store i32 %150, i32* %5, align 4
  %151 = load i32, i32* %4, align 4
  store i32 %151, i32* %6, align 4
  br label %186

152:                                              ; preds = %146, %136, %131, %121, %118
  %153 = load i32, i32* %4, align 4
  %154 = load i32, i32* %2, align 4
  %155 = sub nsw i32 %154, 1
  %156 = icmp eq i32 %153, %155
  br i1 %156, label %182, label %157

157:                                              ; preds = %152
  %158 = load i32, i32* %4, align 4
  %159 = load i32, i32* %2, align 4
  %160 = sub nsw i32 %159, 1
  %161 = icmp ne i32 %158, %160
  br i1 %161, label %162, label %185

162:                                              ; preds = %157
  %163 = load i32, i32* %3, align 4
  %164 = sext i32 %163 to i64
  %165 = getelementptr inbounds [100 x [1000 x i32]], [100 x [1000 x i32]]* %10, i64 0, i64 %164
  %166 = load i32, i32* %4, align 4
  %167 = sub nsw i32 %166, 1
  %168 = sext i32 %167 to i64
  %169 = getelementptr inbounds [1000 x i32], [1000 x i32]* %165, i64 0, i64 %168
  %170 = load i32, i32* %169, align 4
  %171 = icmp eq i32 %170, 0
  br i1 %171, label %172, label %185

172:                                              ; preds = %162
  %173 = load i32, i32* %3, align 4
  %174 = sext i32 %173 to i64
  %175 = getelementptr inbounds [100 x [1000 x i32]], [100 x [1000 x i32]]* %10, i64 0, i64 %174
  %176 = load i32, i32* %4, align 4
  %177 = add nsw i32 %176, 1
  %178 = sext i32 %177 to i64
  %179 = getelementptr inbounds [1000 x i32], [1000 x i32]* %175, i64 0, i64 %178
  %180 = load i32, i32* %179, align 4
  %181 = icmp ne i32 %180, 0
  br i1 %181, label %182, label %185

182:                                              ; preds = %172, %152
  %183 = load i32, i32* %3, align 4
  store i32 %183, i32* %7, align 4
  %184 = load i32, i32* %4, align 4
  store i32 %184, i32* %8, align 4
  br label %185

185:                                              ; preds = %182, %172, %162, %157
  br label %186

186:                                              ; preds = %185, %149
  br label %187

187:                                              ; preds = %186, %46
  br label %188

188:                                              ; preds = %187
  %189 = load i32, i32* %4, align 4
  %190 = add nsw i32 %189, 1
  store i32 %190, i32* %4, align 4
  br label %42

191:                                              ; preds = %42
  br label %192

192:                                              ; preds = %191
  %193 = load i32, i32* %3, align 4
  %194 = add nsw i32 %193, 1
  store i32 %194, i32* %3, align 4
  br label %37

195:                                              ; preds = %37
  %196 = load i32, i32* %7, align 4
  %197 = load i32, i32* %5, align 4
  %198 = sub nsw i32 %196, %197
  %199 = sub nsw i32 %198, 1
  %200 = load i32, i32* %8, align 4
  %201 = load i32, i32* %6, align 4
  %202 = sub nsw i32 %200, %201
  %203 = sub nsw i32 %202, 1
  %204 = mul nsw i32 %199, %203
  store i32 %204, i32* %9, align 4
  %205 = load i32, i32* %9, align 4
  %206 = call i32 (i8*, ...) @printf(i8* getelementptr inbounds ([3 x i8], [3 x i8]* @.str, i64 0, i64 0), i32 %205)
  ret i32 0
}

declare dso_local i32 @__isoc99_scanf(i8*, ...) #1

declare dso_local i32 @printf(i8*, ...) #1


!llvm.module.flags = !{!0}
!llvm.ident = !{!1}

!0 = !{i32 1, !"wchar_size", i32 4}
!1 = !{!"clang version 10.0.0-4ubuntu1 "}
